target datalayout = "e-m:e-p270:32:32-p271:32:32-p272:64:64-i64:64-i128:128-f80:128-n8:16:32:64-S128"
target triple = "x86_64-pc-linux-gnu"

%"class.sls::bvect" = type <{ %class.svector, i32, i32, i32, [4 x i8] }>
%class.svector = type { %class.vector }
%class.vector = type { ptr }
%class.mpn_manager = type { i8 }
%"class.sls::bv_valuation" = type { %"class.sls::bvect", %"class.sls::bvect", %"class.sls::bvect", %"class.sls::bvect", %"class.sls::bvect", %"class.sls::bvect", i32, i32, i32, i32, %"class.sls::bvect" }

; Function Attrs: mustprogress nounwind uwtable
define linkonce_odr hidden noundef ptr @_ZNK6vectorIjLb0EjE4dataEv(ptr noundef nonnull align 8 dereferenceable(8) %0) #5 comdat align 2 {
  %2 = alloca ptr, align 8
  store ptr %0, ptr %2, align 8, !tbaa !17
  %3 = load ptr, ptr %2, align 8
  %4 = getelementptr inbounds nuw %class.vector, ptr %3, i32 0, i32 0
  %5 = load ptr, ptr %4, align 8, !tbaa !19
  ret ptr %5
}

; Function Attrs: mustprogress nounwind uwtable
define linkonce_odr hidden noundef nonnull align 4 dereferenceable(4) ptr @_ZN6vectorIjLb0EjEixEj(ptr noundef nonnull align 8 dereferenceable(8) %0, i32 noundef %1) #5 comdat align 2 {
  %3 = alloca ptr, align 8
  %4 = alloca i32, align 4
  store ptr %0, ptr %3, align 8, !tbaa !17
  store i32 %1, ptr %4, align 4, !tbaa !8
  %5 = load ptr, ptr %3, align 8
  %6 = getelementptr inbounds nuw %class.vector, ptr %5, i32 0, i32 0
  %7 = load ptr, ptr %6, align 8, !tbaa !19
  %8 = load i32, ptr %4, align 4, !tbaa !8
  %9 = zext i32 %8 to i64
  %10 = getelementptr inbounds nuw i32, ptr %7, i64 %9
  ret ptr %10
}

; Function Attrs: mustprogress nounwind uwtable
define linkonce_odr hidden noundef nonnull align 4 dereferenceable(4) ptr @_ZNK6vectorIjLb0EjEixEj(ptr noundef nonnull align 8 dereferenceable(8) %0, i32 noundef %1) #5 comdat align 2 {
  %3 = alloca ptr, align 8
  %4 = alloca i32, align 4
  store ptr %0, ptr %3, align 8, !tbaa !17
  store i32 %1, ptr %4, align 4, !tbaa !8
  %5 = load ptr, ptr %3, align 8
  %6 = getelementptr inbounds nuw %class.vector, ptr %5, i32 0, i32 0
  %7 = load ptr, ptr %6, align 8, !tbaa !19
  %8 = load i32, ptr %4, align 4, !tbaa !8
  %9 = zext i32 %8 to i64
  %10 = getelementptr inbounds nuw i32, ptr %7, i64 %9
  ret ptr %10
}

; Function Attrs: mustprogress uwtable
define linkonce_odr hidden void @_ZNK3sls5bvect7copy_toEjRS0_(ptr noundef nonnull align 8 dereferenceable(20) %0, i32 noundef %1, ptr noundef nonnull align 8 dereferenceable(20) %2) #4 comdat align 2 {
  %4 = alloca ptr, align 8
  %5 = alloca i32, align 4
  %6 = alloca ptr, align 8
  %7 = alloca i32, align 4
  store ptr %0, ptr %4, align 8, !tbaa !3
  store i32 %1, ptr %5, align 4, !tbaa !8
  store ptr %2, ptr %6, align 8, !tbaa !3
  %8 = load ptr, ptr %4, align 8
  call void @llvm.lifetime.start.p0(i64 4, ptr %7) #3
  store i32 0, ptr %7, align 4, !tbaa !8
  br label %9

9:                                                ; preds = %21, %3
  %10 = load i32, ptr %7, align 4, !tbaa !8
  %11 = load i32, ptr %5, align 4, !tbaa !8
  %12 = icmp ult i32 %10, %11
  br i1 %12, label %14, label %13

13:                                               ; preds = %9
  call void @llvm.lifetime.end.p0(i64 4, ptr %7) #3
  br label %24

14:                                               ; preds = %9
  %15 = load i32, ptr %7, align 4, !tbaa !8
  %16 = call noundef nonnull align 4 dereferenceable(4) ptr @_ZNK6vectorIjLb0EjEixEj(ptr noundef nonnull align 8 dereferenceable(8) %8, i32 noundef %15)
  %17 = load i32, ptr %16, align 4, !tbaa !8
  %18 = load ptr, ptr %6, align 8, !tbaa !3
  %19 = load i32, ptr %7, align 4, !tbaa !8
  %20 = call noundef nonnull align 4 dereferenceable(4) ptr @_ZN6vectorIjLb0EjEixEj(ptr noundef nonnull align 8 dereferenceable(8) %18, i32 noundef %19)
  store i32 %17, ptr %20, align 4, !tbaa !8
  br label %21

21:                                               ; preds = %14
  %22 = load i32, ptr %7, align 4, !tbaa !8
  %23 = add i32 %22, 1
  store i32 %23, ptr %7, align 4, !tbaa !8
  br label %9, !llvm.loop !50

24:                                               ; preds = %13
  ret void
}

; Function Attrs: mustprogress uwtable
define hidden noundef zeroext i1 @_ZN3slsltERKNS_5bvectES2_(ptr noundef nonnull align 8 dereferenceable(20) %0, ptr noundef nonnull align 8 dereferenceable(20) %1) #4 {
  %3 = alloca ptr, align 8
  %4 = alloca ptr, align 8
  %5 = alloca %class.mpn_manager, align 1
  store ptr %0, ptr %3, align 8, !tbaa !3
  store ptr %1, ptr %4, align 8, !tbaa !3
  call void @llvm.lifetime.start.p0(i64 1, ptr %5) #3
  %6 = load ptr, ptr %3, align 8, !tbaa !3
  %7 = call noundef ptr @_ZNK6vectorIjLb0EjE4dataEv(ptr noundef nonnull align 8 dereferenceable(8) %6)
  %8 = load ptr, ptr %3, align 8, !tbaa !3
  %9 = getelementptr inbounds nuw %"class.sls::bvect", ptr %8, i32 0, i32 2
  %10 = load i32, ptr %9, align 4, !tbaa !15
  %11 = load ptr, ptr %4, align 8, !tbaa !3
  %12 = call noundef ptr @_ZNK6vectorIjLb0EjE4dataEv(ptr noundef nonnull align 8 dereferenceable(8) %11)
  %13 = load ptr, ptr %3, align 8, !tbaa !3
  %14 = getelementptr inbounds nuw %"class.sls::bvect", ptr %13, i32 0, i32 2
  %15 = load i32, ptr %14, align 4, !tbaa !15
  %16 = call noundef i32 @_ZNK11mpn_manager7compareEPKjjS1_j(ptr noundef nonnull align 1 dereferenceable(1) %5, ptr noundef %7, i32 noundef %10, ptr noundef %12, i32 noundef %15)
  %17 = icmp slt i32 %16, 0
  call void @llvm.lifetime.end.p0(i64 1, ptr %5) #3
  ret i1 %17
}

; Function Attrs: mustprogress uwtable
define hidden void @_ZNK3sls12bv_valuation12min_feasibleERNS_5bvectE(ptr noundef nonnull align 8 dereferenceable(184) %0, ptr noundef nonnull align 8 dereferenceable(20) %1) #4 align 2 {
  %3 = alloca ptr, align 8
  %4 = alloca ptr, align 8
  %5 = alloca i32, align 4
  store ptr %0, ptr %3, align 8, !tbaa !53
  store ptr %1, ptr %4, align 8, !tbaa !3
  %6 = load ptr, ptr %3, align 8
  %7 = getelementptr inbounds nuw %"class.sls::bv_valuation", ptr %6, i32 0, i32 1
  %8 = getelementptr inbounds nuw %"class.sls::bv_valuation", ptr %6, i32 0, i32 2
  %9 = call noundef zeroext i1 @_ZN3slsltERKNS_5bvectES2_(ptr noundef nonnull align 8 dereferenceable(20) %7, ptr noundef nonnull align 8 dereferenceable(20) %8)
  br i1 %9, label %10, label %15

10:                                               ; preds = %2
  %11 = getelementptr inbounds nuw %"class.sls::bv_valuation", ptr %6, i32 0, i32 1
  %12 = getelementptr inbounds nuw %"class.sls::bv_valuation", ptr %6, i32 0, i32 9
  %13 = load i32, ptr %12, align 4, !tbaa !57
  %14 = load ptr, ptr %4, align 8, !tbaa !3
  call void @_ZNK3sls5bvect7copy_toEjRS0_(ptr noundef nonnull align 8 dereferenceable(20) %11, i32 noundef %13, ptr noundef nonnull align 8 dereferenceable(20) %14)
  br label %39

15:                                               ; preds = %2
  call void @llvm.lifetime.start.p0(i64 4, ptr %5) #3
  store i32 0, ptr %5, align 4, !tbaa !8
  br label %16

16:                                               ; preds = %35, %15
  %17 = load i32, ptr %5, align 4, !tbaa !8
  %18 = getelementptr inbounds nuw %"class.sls::bv_valuation", ptr %6, i32 0, i32 9
  %19 = load i32, ptr %18, align 4, !tbaa !57
  %20 = icmp ult i32 %17, %19
  br i1 %20, label %22, label %21

21:                                               ; preds = %16
  call void @llvm.lifetime.end.p0(i64 4, ptr %5) #3
  br label %38

22:                                               ; preds = %16
  %23 = getelementptr inbounds nuw %"class.sls::bv_valuation", ptr %6, i32 0, i32 3
  %24 = load i32, ptr %5, align 4, !tbaa !8
  %25 = call noundef nonnull align 4 dereferenceable(4) ptr @_ZNK6vectorIjLb0EjEixEj(ptr noundef nonnull align 8 dereferenceable(8) %23, i32 noundef %24)
  %26 = load i32, ptr %25, align 4, !tbaa !8
  %27 = getelementptr inbounds nuw %"class.sls::bv_valuation", ptr %6, i32 0, i32 0
  %28 = load i32, ptr %5, align 4, !tbaa !8
  %29 = call noundef nonnull align 4 dereferenceable(4) ptr @_ZNK6vectorIjLb0EjEixEj(ptr noundef nonnull align 8 dereferenceable(8) %27, i32 noundef %28)
  %30 = load i32, ptr %29, align 4, !tbaa !8
  %31 = and i32 %26, %30
  %32 = load ptr, ptr %4, align 8, !tbaa !3
  %33 = load i32, ptr %5, align 4, !tbaa !8
  %34 = call noundef nonnull align 4 dereferenceable(4) ptr @_ZN6vectorIjLb0EjEixEj(ptr noundef nonnull align 8 dereferenceable(8) %32, i32 noundef %33)
  store i32 %31, ptr %34, align 4, !tbaa !8
  br label %35

35:                                               ; preds = %22
  %36 = load i32, ptr %5, align 4, !tbaa !8
  %37 = add i32 %36, 1
  store i32 %37, ptr %5, align 4, !tbaa !8
  br label %16, !llvm.loop !102

38:                                               ; preds = %21
  br label %39

39:                                               ; preds = %38, %10
  %40 = load ptr, ptr %4, align 8, !tbaa !3
  call void @_ZNK3sls12bv_valuation16repair_sign_bitsERNS_5bvectE(ptr noundef nonnull align 8 dereferenceable(184) %6, ptr noundef nonnull align 8 dereferenceable(20) %40)
  ret void
}