; Function Attrs: mustprogress uwtable
define hidden void @_ZNK3sls12bv_valuation12min_feasibleERNS_5bvectE(ptr noundef nonnull readonly align 8 captures(none) dereferenceable(184) %0, ptr noundef nonnull readonly align 8 captures(none) dereferenceable(20) %1) local_unnamed_addr #3 align 2 {
  %3 = alloca %class.mpn_manager, align 1
  %4 = getelementptr inbounds nuw i8, ptr %0, i64 24
  %5 = getelementptr inbounds nuw i8, ptr %0, i64 48
  call void @llvm.lifetime.start.p0(i64 1, ptr nonnull %3) #29
  %6 = load ptr, ptr %4, align 8, !tbaa !14
  %7 = getelementptr inbounds nuw i8, ptr %0, i64 36
  %8 = load i32, ptr %7, align 4, !tbaa !12
  %9 = load ptr, ptr %5, align 8, !tbaa !14
  %10 = call noundef i32 @_ZNK11mpn_manager7compareEPKjjS1_j(ptr noundef nonnull align 1 dereferenceable(1) %3, ptr noundef %6, i32 noundef %8, ptr noundef %9, i32 noundef %8)
  %11 = icmp slt i32 %10, 0
  call void @llvm.lifetime.end.p0(i64 1, ptr nonnull %3) #29
  %12 = getelementptr inbounds nuw i8, ptr %0, i64 156
  %13 = load i32, ptr %12, align 4, !tbaa !68
  %.not.i = icmp eq i32 %13, 0
  br i1 %11, label %18, label %.preheader

.preheader:                                       ; preds = %2
  br i1 %.not.i, label %_ZNK3sls5bvect7copy_toEjRS0_.exit, label %.lr.ph

.lr.ph:                                           ; preds = %.preheader
  %14 = getelementptr inbounds nuw i8, ptr %0, i64 72
  %15 = load ptr, ptr %14, align 8, !tbaa !14
  %16 = load ptr, ptr %0, align 8, !tbaa !14
  %17 = load ptr, ptr %1, align 8, !tbaa !14
  br label %25

18:                                               ; preds = %2
  br i1 %.not.i, label %_ZNK3sls5bvect7copy_toEjRS0_.exit, label %.lr.ph.i

.lr.ph.i:                                         ; preds = %18
  %19 = load ptr, ptr %4, align 8, !tbaa !14
  %20 = load ptr, ptr %1, align 8, !tbaa !14
  %wide.trip.count.i = zext i32 %13 to i64
  br label %21

21:                                               ; preds = %21, %.lr.ph.i
  %indvars.iv.i = phi i64 [ 0, %.lr.ph.i ], [ %indvars.iv.next.i, %21 ]
  %22 = getelementptr inbounds nuw i32, ptr %19, i64 %indvars.iv.i
  %23 = load i32, ptr %22, align 4, !tbaa !15
  %24 = getelementptr inbounds nuw i32, ptr %20, i64 %indvars.iv.i
  store i32 %23, ptr %24, align 4, !tbaa !15
  %indvars.iv.next.i = add nuw nsw i64 %indvars.iv.i, 1
  %exitcond.not.i = icmp eq i64 %indvars.iv.next.i, %wide.trip.count.i
  br i1 %exitcond.not.i, label %_ZNK3sls5bvect7copy_toEjRS0_.exit, label %21, !llvm.loop !61

25:                                               ; preds = %.lr.ph, %25
  %indvars.iv = phi i64 [ 0, %.lr.ph ], [ %indvars.iv.next, %25 ]
  %26 = getelementptr inbounds nuw i32, ptr %15, i64 %indvars.iv
  %27 = load i32, ptr %26, align 4, !tbaa !15
  %28 = getelementptr inbounds nuw i32, ptr %16, i64 %indvars.iv
  %29 = load i32, ptr %28, align 4, !tbaa !15
  %30 = and i32 %29, %27
  %31 = getelementptr inbounds nuw i32, ptr %17, i64 %indvars.iv
  store i32 %30, ptr %31, align 4, !tbaa !15
  %indvars.iv.next = add nuw nsw i64 %indvars.iv, 1
  %32 = load i32, ptr %12, align 4, !tbaa !68
  %33 = zext i32 %32 to i64
  %34 = icmp samesign ult i64 %indvars.iv.next, %33
  br i1 %34, label %25, label %_ZNK3sls5bvect7copy_toEjRS0_.exit, !llvm.loop !108

_ZNK3sls5bvect7copy_toEjRS0_.exit:                ; preds = %25, %21, %.preheader, %18
  call void @_ZNK3sls12bv_valuation16repair_sign_bitsERNS_5bvectE(ptr noundef nonnull align 8 dereferenceable(184) %0, ptr noundef nonnull align 8 dereferenceable(20) %1)
  ret void
}